target datalayout = "e-m:e-p270:32:32-p271:32:32-p272:64:64-i64:64-i128:128-f80:128-n8:16:32:64-S128"
target triple = "x86_64-pc-linux-gnu"

%struct._value_string = type { i32, ptr }

@rtcp_handle = internal global ptr null, align 8
@proto_rtcp = internal global i32 0, align 4
@.str.268 = private unnamed_addr constant [15 x i8] c"rtcp.rtpfb.fmt\00", align 1
@srtcp_handle = internal global ptr null, align 8
@.str.671 = private unnamed_addr constant [9 x i8] c"rtcp.pse\00", align 1
@ms_pse_handle = internal global ptr null, align 8
@.str.676 = private unnamed_addr constant [9 x i8] c"udp.port\00", align 1
@.str.677 = private unnamed_addr constant [13 x i8] c"flip.payload\00", align 1
@.str.678 = private unnamed_addr constant [4 x i8] c"udp\00", align 1
@.str.679 = private unnamed_addr constant [14 x i8] c"RTCP over UDP\00", align 1
@.str.680 = private unnamed_addr constant [9 x i8] c"rtcp_udp\00", align 1
@.str.681 = private unnamed_addr constant [5 x i8] c"stun\00", align 1
@.str.682 = private unnamed_addr constant [15 x i8] c"RTCP over TURN\00", align 1
@.str.683 = private unnamed_addr constant [10 x i8] c"rtcp_stun\00", align 1
@rtcp_rtpfb_nack_handle = internal global ptr null, align 8
@rtcp_rtpfb_tmmbr_handle = internal global ptr null, align 8
@rtcp_rtpfb_tmmbn_handle = internal global ptr null, align 8
@rtcp_rtpfb_ccfb_handle = internal global ptr null, align 8
@rtcp_rtpfb_transport_cc_handle = internal global ptr null, align 8
@rtcp_rtpfb_undecoded_fci_handle = internal global ptr null, align 8

; Function Attrs: null_pointer_is_valid sspstrong uwtable
define internal void @add_entries_for_rtcp_rtpfb_dissector_table() #0 {
  %1 = alloca i32, align 4
  %2 = alloca i32, align 4
  %3 = alloca i32, align 4
  %4 = alloca i32, align 4
  %5 = alloca i32, align 4
  %6 = alloca i32, align 4
  call void @llvm.lifetime.start.p0(i64 4, ptr %1) #9
  store i32 1, ptr %1, align 4
  call void @llvm.lifetime.start.p0(i64 4, ptr %2) #9
  store i32 3, ptr %2, align 4
  call void @llvm.lifetime.start.p0(i64 4, ptr %3) #9
  store i32 4, ptr %3, align 4
  call void @llvm.lifetime.start.p0(i64 4, ptr %4) #9
  store i32 11, ptr %4, align 4
  call void @llvm.lifetime.start.p0(i64 4, ptr %5) #9
  store i32 15, ptr %5, align 4
  %7 = load ptr, ptr @rtcp_rtpfb_nack_handle, align 8
  call void @dissector_add_uint(ptr noundef @.str.268, i32 noundef 1, ptr noundef %7)
  %8 = load ptr, ptr @rtcp_rtpfb_tmmbr_handle, align 8
  call void @dissector_add_uint(ptr noundef @.str.268, i32 noundef 3, ptr noundef %8)
  %9 = load ptr, ptr @rtcp_rtpfb_tmmbn_handle, align 8
  call void @dissector_add_uint(ptr noundef @.str.268, i32 noundef 4, ptr noundef %9)
  %10 = load ptr, ptr @rtcp_rtpfb_ccfb_handle, align 8
  call void @dissector_add_uint(ptr noundef @.str.268, i32 noundef 11, ptr noundef %10)
  %11 = load ptr, ptr @rtcp_rtpfb_transport_cc_handle, align 8
  call void @dissector_add_uint(ptr noundef @.str.268, i32 noundef 15, ptr noundef %11)
  call void @llvm.lifetime.start.p0(i64 4, ptr %6) #9
  store i32 2, ptr %6, align 4
  %12 = load i32, ptr %6, align 4
  %13 = load ptr, ptr @rtcp_rtpfb_undecoded_fci_handle, align 8
  call void @dissector_add_uint(ptr noundef @.str.268, i32 noundef %12, ptr noundef %13)
  store i32 5, ptr %6, align 4
  br label %14

14:                                               ; preds = %20, %0
  %15 = load i32, ptr %6, align 4
  %16 = icmp slt i32 %15, 11
  br i1 %16, label %17, label %23

17:                                               ; preds = %14
  %18 = load i32, ptr %6, align 4
  %19 = load ptr, ptr @rtcp_rtpfb_undecoded_fci_handle, align 8
  call void @dissector_add_uint(ptr noundef @.str.268, i32 noundef %18, ptr noundef %19)
  br label %20

20:                                               ; preds = %17
  %21 = load i32, ptr %6, align 4
  %22 = add i32 %21, 1
  store i32 %22, ptr %6, align 4
  br label %14, !llvm.loop !8

23:                                               ; preds = %14
  call void @llvm.lifetime.end.p0(i64 4, ptr %6) #9
  call void @llvm.lifetime.end.p0(i64 4, ptr %5) #9
  call void @llvm.lifetime.end.p0(i64 4, ptr %4) #9
  call void @llvm.lifetime.end.p0(i64 4, ptr %3) #9
  call void @llvm.lifetime.end.p0(i64 4, ptr %2) #9
  call void @llvm.lifetime.end.p0(i64 4, ptr %1) #9
  ret void
}

; Function Attrs: null_pointer_is_valid sspstrong uwtable
define hidden void @proto_reg_handoff_rtcp() #0 {
  %1 = alloca i32, align 4
  %2 = load ptr, ptr @rtcp_handle, align 8
  call void @dissector_add_for_decode_as_with_preference(ptr noundef @.str.676, ptr noundef %2)
  %3 = load ptr, ptr @rtcp_handle, align 8
  call void @dissector_add_for_decode_as(ptr noundef @.str.677, ptr noundef %3)
  %4 = load ptr, ptr @srtcp_handle, align 8
  call void @dissector_add_for_decode_as_with_preference(ptr noundef @.str.676, ptr noundef %4)
  call void @llvm.lifetime.start.p0(i64 4, ptr %1) #9
  store i32 0, ptr %1, align 4
  br label %5

5:                                                ; preds = %20, %0
  %6 = load i32, ptr %1, align 4
  %7 = sext i32 %6 to i64
  %8 = getelementptr [13 x %struct._value_string], ptr @rtcp_ms_profile_extension_vals, i64 0, i64 %7
  %9 = getelementptr inbounds nuw %struct._value_string, ptr %8, i32 0, i32 1
  %10 = load ptr, ptr %9, align 8
  %11 = icmp ne ptr %10, null
  br i1 %11, label %13, label %12

12:                                               ; preds = %5
  call void @llvm.lifetime.end.p0(i64 4, ptr %1) #9
  br label %23

13:                                               ; preds = %5
  %14 = load i32, ptr %1, align 4
  %15 = sext i32 %14 to i64
  %16 = getelementptr [13 x %struct._value_string], ptr @rtcp_ms_profile_extension_vals, i64 0, i64 %15
  %17 = getelementptr inbounds nuw %struct._value_string, ptr %16, i32 0, i32 0
  %18 = load i32, ptr %17, align 16
  %19 = load ptr, ptr @ms_pse_handle, align 8
  call void @dissector_add_uint(ptr noundef @.str.671, i32 noundef %18, ptr noundef %19)
  br label %20

20:                                               ; preds = %13
  %21 = load i32, ptr %1, align 4
  %22 = add i32 %21, 1
  store i32 %22, ptr %1, align 4
  br label %5, !llvm.loop !6

23:                                               ; preds = %12
  call void @add_entries_for_rtcp_rtpfb_dissector_table()
  %24 = load i32, ptr @proto_rtcp, align 4
  call void @heur_dissector_add(ptr noundef @.str.678, ptr noundef @dissect_rtcp_heur, ptr noundef @.str.679, ptr noundef @.str.680, i32 noundef %24, i32 noundef 1)
  %25 = load i32, ptr @proto_rtcp, align 4
  call void @heur_dissector_add(ptr noundef @.str.681, ptr noundef @dissect_rtcp_heur, ptr noundef @.str.682, ptr noundef @.str.683, i32 noundef %25, i32 noundef 1)
  ret void
}