; Function Attrs: null_pointer_is_valid sspstrong uwtable
define hidden void @proto_reg_handoff_rtcp() local_unnamed_addr #0 {
  %1 = load ptr, ptr @rtcp_handle, align 8
  tail call void @dissector_add_for_decode_as_with_preference(ptr noundef nonnull @.str.676, ptr noundef %1)
  %2 = load ptr, ptr @rtcp_handle, align 8
  tail call void @dissector_add_for_decode_as(ptr noundef nonnull @.str.677, ptr noundef %2)
  %3 = load ptr, ptr @srtcp_handle, align 8
  tail call void @dissector_add_for_decode_as_with_preference(ptr noundef nonnull @.str.676, ptr noundef %3)
  br label %16

4:                                                ; preds = %16
  %5 = load ptr, ptr @rtcp_rtpfb_nack_handle, align 8
  tail call void @dissector_add_uint(ptr noundef nonnull @.str.268, i32 noundef 1, ptr noundef %5)
  %6 = load ptr, ptr @rtcp_rtpfb_tmmbr_handle, align 8
  tail call void @dissector_add_uint(ptr noundef nonnull @.str.268, i32 noundef 3, ptr noundef %6)
  %7 = load ptr, ptr @rtcp_rtpfb_tmmbn_handle, align 8
  tail call void @dissector_add_uint(ptr noundef nonnull @.str.268, i32 noundef 4, ptr noundef %7)
  %8 = load ptr, ptr @rtcp_rtpfb_ccfb_handle, align 8
  tail call void @dissector_add_uint(ptr noundef nonnull @.str.268, i32 noundef 11, ptr noundef %8)
  %9 = load ptr, ptr @rtcp_rtpfb_transport_cc_handle, align 8
  tail call void @dissector_add_uint(ptr noundef nonnull @.str.268, i32 noundef 15, ptr noundef %9)
  %10 = load ptr, ptr @rtcp_rtpfb_undecoded_fci_handle, align 8
  tail call void @dissector_add_uint(ptr noundef nonnull @.str.268, i32 noundef 2, ptr noundef %10)
  br label %11

11:                                               ; preds = %11, %4
  %.04.i = phi i32 [ 5, %4 ], [ %13, %11 ]
  %12 = load ptr, ptr @rtcp_rtpfb_undecoded_fci_handle, align 8
  tail call void @dissector_add_uint(ptr noundef nonnull @.str.268, i32 noundef %.04.i, ptr noundef %12)
  %13 = add nuw nsw i32 %.04.i, 1
  %exitcond.not.i = icmp eq i32 %13, 11
  br i1 %exitcond.not.i, label %add_entries_for_rtcp_rtpfb_dissector_table.exit, label %11, !llvm.loop !6

add_entries_for_rtcp_rtpfb_dissector_table.exit:  ; preds = %11
  %14 = load i32, ptr @proto_rtcp, align 4
  tail call void @heur_dissector_add(ptr noundef nonnull @.str.678, ptr noundef nonnull @dissect_rtcp_heur, ptr noundef nonnull @.str.679, ptr noundef nonnull @.str.680, i32 noundef %14, i32 noundef 1)
  %15 = load i32, ptr @proto_rtcp, align 4
  tail call void @heur_dissector_add(ptr noundef nonnull @.str.681, ptr noundef nonnull @dissect_rtcp_heur, ptr noundef nonnull @.str.682, ptr noundef nonnull @.str.683, i32 noundef %15, i32 noundef 1)
  ret void

16:                                               ; preds = %0, %16
  %indvars.iv = phi i64 [ 0, %0 ], [ %indvars.iv.next, %16 ]
  %17 = phi ptr [ @rtcp_ms_profile_extension_vals, %0 ], [ %20, %16 ]
  %18 = load i32, ptr %17, align 16
  %19 = load ptr, ptr @ms_pse_handle, align 8
  tail call void @dissector_add_uint(ptr noundef nonnull @.str.671, i32 noundef %18, ptr noundef %19)
  %indvars.iv.next = add nuw nsw i64 %indvars.iv, 1
  %20 = getelementptr [13 x %struct._value_string], ptr @rtcp_ms_profile_extension_vals, i64 0, i64 %indvars.iv.next
  %exitcond = icmp eq i64 %indvars.iv.next, 12
  br i1 %exitcond, label %4, label %16, !llvm.loop !8
}